; Function Attrs: mustprogress uwtable
define hidden void @_ZN16fpa2bv_converter10mk_numeralEP9func_decljPKP4exprR7obj_refIS2_11ast_managerE(ptr noundef nonnull align 8 dereferenceable(496) %0, ptr noundef %1, i32 noundef %2, ptr noundef %3, ptr noundef nonnull align 8 captures(none) dereferenceable(16) %4) local_unnamed_addr #3 align 2 personality ptr @__gxx_personality_v0 {
  %6 = alloca %class.scoped_mpf, align 8
  %7 = alloca %class.obj_ref, align 8
  call void @llvm.lifetime.start.p0(i64 40, ptr nonnull %6) #23
  %8 = getelementptr inbounds nuw i8, ptr %0, i64 352
  %9 = load ptr, ptr %8, align 8, !tbaa !234
  store ptr %9, ptr %6, align 8, !tbaa !73
  %10 = getelementptr inbounds nuw i8, ptr %6, i64 8
  call void @_ZN3mpfC1Ev(ptr noundef nonnull align 8 dereferenceable(32) %10)
  call void @llvm.lifetime.start.p0(i64 16, ptr nonnull %7) #23
  %11 = getelementptr inbounds nuw i8, ptr %0, i64 8
  %12 = load ptr, ptr %11, align 8, !tbaa !130
  store ptr null, ptr %7, align 8, !tbaa !164
  %13 = getelementptr inbounds nuw i8, ptr %7, i64 8
  store ptr %12, ptr %13, align 8, !tbaa !6
  %14 = invoke noundef ptr @_ZN11ast_manager6mk_appEP9func_decljPKP4expr(ptr noundef nonnull align 8 dereferenceable(976) %12, ptr noundef %1, i32 noundef %2, ptr noundef %3)
          to label %15 unwind label %42

15:                                               ; preds = %5
  %.not.i = icmp eq ptr %14, null
  br i1 %.not.i, label %19, label %_ZN11ast_manager7inc_refEP3ast.exit.i

_ZN11ast_manager7inc_refEP3ast.exit.i:            ; preds = %15
  %16 = getelementptr inbounds nuw i8, ptr %14, i64 8
  %17 = load i32, ptr %16, align 4, !tbaa !125
  %18 = add i32 %17, 1
  store i32 %18, ptr %16, align 4, !tbaa !125
  br label %19

19:                                               ; preds = %15, %_ZN11ast_manager7inc_refEP3ast.exit.i
  store ptr %14, ptr %7, align 8, !tbaa !164
  %20 = getelementptr inbounds nuw i8, ptr %0, i64 296
  %21 = load ptr, ptr %20, align 8, !tbaa !65
  %22 = invoke noundef zeroext i1 @_ZN15fpa_decl_plugin10is_numeralEP4exprR3mpf(ptr noundef nonnull align 8 dereferenceable(1008) %21, ptr noundef %14, ptr noundef nonnull align 8 dereferenceable(32) %10)
          to label %_ZN8fpa_util10is_numeralEP4exprR3mpf.exit unwind label %42

_ZN8fpa_util10is_numeralEP4exprR3mpf.exit:        ; preds = %19
  %23 = getelementptr inbounds nuw i8, ptr %1, i64 40
  %24 = load ptr, ptr %23, align 8, !tbaa !153
  invoke void @_ZN16fpa2bv_converter10mk_numeralEP4sortRK3mpfR7obj_refI4expr11ast_managerE(ptr noundef nonnull align 8 dereferenceable(496) %0, ptr noundef %24, ptr noundef nonnull align 8 dereferenceable(32) %10, ptr noundef nonnull align 8 dereferenceable(16) %4)
          to label %25 unwind label %42

25:                                               ; preds = %_ZN8fpa_util10is_numeralEP4exprR3mpf.exit
  br i1 %.not.i, label %_ZN7obj_refI4expr11ast_managerED2Ev.exit, label %26

26:                                               ; preds = %25
  %27 = getelementptr inbounds nuw i8, ptr %14, i64 8
  %28 = load i32, ptr %27, align 4, !tbaa !125
  %29 = add i32 %28, -1
  store i32 %29, ptr %27, align 4, !tbaa !125
  %30 = icmp eq i32 %29, 0
  br i1 %30, label %31, label %_ZN7obj_refI4expr11ast_managerED2Ev.exit

31:                                               ; preds = %26
  invoke void @_ZN11ast_manager11delete_nodeEP3ast(ptr noundef nonnull align 8 dereferenceable(976) %12, ptr noundef nonnull %14)
          to label %_ZN7obj_refI4expr11ast_managerED2Ev.exit unwind label %32

32:                                               ; preds = %31
  %33 = landingpad { ptr, i32 }
          catch ptr null
  %34 = extractvalue { ptr, i32 } %33, 0
  call void @__clang_call_terminate(ptr %34) #24
  unreachable

_ZN7obj_refI4expr11ast_managerED2Ev.exit:         ; preds = %25, %26, %31
  call void @llvm.lifetime.end.p0(i64 16, ptr nonnull %7) #23
  %35 = load ptr, ptr %6, align 8, !tbaa !235
  %36 = getelementptr inbounds nuw i8, ptr %35, i64 728
  %37 = load ptr, ptr %36, align 8, !tbaa !75
  %38 = getelementptr inbounds nuw i8, ptr %6, i64 16
  invoke void @_ZN11mpz_managerILb0EE3delEPS0_R3mpz(ptr noundef nonnull align 8 dereferenceable(600) %37, ptr noundef nonnull align 8 dereferenceable(16) %38)
          to label %_ZN15_scoped_numeralI11mpf_managerED2Ev.exit unwind label %39

39:                                               ; preds = %_ZN7obj_refI4expr11ast_managerED2Ev.exit
  %40 = landingpad { ptr, i32 }
          catch ptr null
  %41 = extractvalue { ptr, i32 } %40, 0
  call void @__clang_call_terminate(ptr %41) #24
  unreachable

_ZN15_scoped_numeralI11mpf_managerED2Ev.exit:     ; preds = %_ZN7obj_refI4expr11ast_managerED2Ev.exit
  call void @llvm.lifetime.end.p0(i64 40, ptr nonnull %6) #23
  ret void

42:                                               ; preds = %19, %_ZN8fpa_util10is_numeralEP4exprR3mpf.exit, %5
  %43 = landingpad { ptr, i32 }
          cleanup
  call void @_ZN7obj_refI4expr11ast_managerED2Ev(ptr noundef nonnull align 8 dereferenceable(16) %7) #23
  call void @llvm.lifetime.end.p0(i64 16, ptr nonnull %7) #23
  call void @_ZN15_scoped_numeralI11mpf_managerED2Ev(ptr noundef nonnull align 8 dereferenceable(40) %6) #23
  call void @llvm.lifetime.end.p0(i64 40, ptr nonnull %6) #23
  resume { ptr, i32 } %43
}